; ModuleID = '44/407.c'
source_filename = "44/407.c"
target datalayout = "e-m:e-p270:32:32-p271:32:32-p272:64:64-i64:64-f80:128-n8:16:32:64-S128"
target triple = "x86_64-pc-linux-gnu"

@.str = private unnamed_addr constant [3 x i8] c"%d\00", align 1
@.str.1 = private unnamed_addr constant [4 x i8] c"%d\0A\00", align 1

; Function Attrs: noinline nounwind uwtable
define dso_local i32 @main() #0 {
  %1 = alloca i32, align 4
  %2 = alloca i32, align 4
  %3 = alloca i32, align 4
  store i32 0, i32* %1, align 4
  store i32 0, i32* %2, align 4
  br label %4

4:                                                ; preds = %12, %0
  %5 = load i32, i32* %2, align 4
  %6 = icmp slt i32 %5, 6
  br i1 %6, label %7, label %15

7:                                                ; preds = %4
  %8 = call i32 (i8*, ...) @__isoc99_scanf(i8* getelementptr inbounds ([3 x i8], [3 x i8]* @.str, i64 0, i64 0), i32* %3)
  %9 = load i32, i32* %3, align 4
  %10 = call i32 @reverse(i32 %9)
  %11 = call i32 (i8*, ...) @printf(i8* getelementptr inbounds ([4 x i8], [4 x i8]* @.str.1, i64 0, i64 0), i32 %10)
  br label %12

12:                                               ; preds = %7
  %13 = load i32, i32* %2, align 4
  %14 = add nsw i32 %13, 1
  store i32 %14, i32* %2, align 4
  br label %4

15:                                               ; preds = %4
  ret i32 0
}

declare dso_local i32 @__isoc99_scanf(i8*, ...) #1

declare dso_local i32 @printf(i8*, ...) #1

; Function Attrs: noinline nounwind uwtable
define dso_local i32 @reverse(i32 %0) #0 {
  %2 = alloca i32, align 4
  %3 = alloca i32, align 4
  %4 = alloca i32, align 4
  %5 = alloca i32, align 4
  %6 = alloca i32, align 4
  store i32 %0, i32* %2, align 4
  store i32 1, i32* %6, align 4
  store i32 0, i32* %5, align 4
  %7 = load i32, i32* %2, align 4
  %8 = icmp slt i32 %7, 0
  br i1 %8, label %9, label %12

9:                                                ; preds = %1
  %10 = load i32, i32* %2, align 4
  %11 = sub nsw i32 0, %10
  store i32 %11, i32* %2, align 4
  store i32 -1, i32* %6, align 4
  br label %12

12:                                               ; preds = %9, %1
  store i32 1, i32* %3, align 4
  br label %13

13:                                               ; preds = %26, %12
  %14 = load i32, i32* %3, align 4
  %15 = icmp slt i32 %14, 12
  br i1 %15, label %16, label %29

16:                                               ; preds = %13
  %17 = load i32, i32* %2, align 4
  %18 = sitofp i32 %17 to double
  %19 = load i32, i32* %3, align 4
  %20 = sitofp i32 %19 to double
  %21 = call double @pow(double 1.000000e+01, double %20) #3
  %22 = fcmp olt double %18, %21
  br i1 %22, label %23, label %25

23:                                               ; preds = %16
  %24 = load i32, i32* %3, align 4
  store i32 %24, i32* %4, align 4
  br label %29

25:                                               ; preds = %16
  br label %26

26:                                               ; preds = %25
  %27 = load i32, i32* %3, align 4
  %28 = add nsw i32 %27, 1
  store i32 %28, i32* %3, align 4
  br label %13

29:                                               ; preds = %23, %13
  store i32 0, i32* %3, align 4
  br label %30

30:                                               ; preds = %79, %29
  %31 = load i32, i32* %3, align 4
  %32 = load i32, i32* %4, align 4
  %33 = icmp slt i32 %31, %32
  br i1 %33, label %34, label %82

34:                                               ; preds = %30
  %35 = load i32, i32* %3, align 4
  %36 = icmp eq i32 %35, 0
  br i1 %36, label %37, label %48

37:                                               ; preds = %34
  %38 = load i32, i32* %2, align 4
  %39 = srem i32 %38, 10
  %40 = load i32, i32* %4, align 4
  %41 = sub nsw i32 %40, 1
  %42 = sitofp i32 %41 to double
  %43 = call double @pow(double 1.000000e+01, double %42) #3
  %44 = fptosi double %43 to i32
  %45 = mul nsw i32 %39, %44
  %46 = load i32, i32* %5, align 4
  %47 = add nsw i32 %46, %45
  store i32 %47, i32* %5, align 4
  br label %78

48:                                               ; preds = %34
  %49 = load i32, i32* %2, align 4
  %50 = load i32, i32* %3, align 4
  %51 = add nsw i32 %50, 1
  %52 = sitofp i32 %51 to double
  %53 = call double @pow(double 1.000000e+01, double %52) #3
  %54 = fptosi double %53 to i32
  %55 = srem i32 %49, %54
  %56 = load i32, i32* %2, align 4
  %57 = load i32, i32* %3, align 4
  %58 = sitofp i32 %57 to double
  %59 = call double @pow(double 1.000000e+01, double %58) #3
  %60 = fptosi double %59 to i32
  %61 = srem i32 %56, %60
  %62 = sub nsw i32 %55, %61
  %63 = load i32, i32* %3, align 4
  %64 = sitofp i32 %63 to double
  %65 = call double @pow(double 1.000000e+01, double %64) #3
  %66 = fptosi double %65 to i32
  %67 = sdiv i32 %62, %66
  %68 = load i32, i32* %4, align 4
  %69 = load i32, i32* %3, align 4
  %70 = sub nsw i32 %68, %69
  %71 = sub nsw i32 %70, 1
  %72 = sitofp i32 %71 to double
  %73 = call double @pow(double 1.000000e+01, double %72) #3
  %74 = fptosi double %73 to i32
  %75 = mul nsw i32 %67, %74
  %76 = load i32, i32* %5, align 4
  %77 = add nsw i32 %76, %75
  store i32 %77, i32* %5, align 4
  br label %78

78:                                               ; preds = %48, %37
  br label %79

79:                                               ; preds = %78
  %80 = load i32, i32* %3, align 4
  %81 = add nsw i32 %80, 1
  store i32 %81, i32* %3, align 4
  br label %30

82:                                               ; preds = %30
  %83 = load i32, i32* %6, align 4
  %84 = load i32, i32* %5, align 4
  %85 = mul nsw i32 %83, %84
  store i32 %85, i32* %5, align 4
  %86 = load i32, i32* %5, align 4
  ret i32 %86
}

; Function Attrs: nounwind
declare dso_local double @pow(double, double) #2


!llvm.module.flags = !{!0}
!llvm.ident = !{!1}

!0 = !{i32 1, !"wchar_size", i32 4}
!1 = !{!"clang version 10.0.0-4ubuntu1 "}
